target datalayout = "e-m:e-p270:32:32-p271:32:32-p272:64:64-i64:64-i128:128-f80:128-n8:16:32:64-S128"
target triple = "x86_64-unknown-linux-gnu"

@.str.219 = private unnamed_addr constant [1 x i8] zeroinitializer, align 1
@.str.331 = private unnamed_addr constant [12 x i8] c"wait_bgsave\00", align 1
@.str.332 = private unnamed_addr constant [10 x i8] c"send_bulk\00", align 1
@.str.333 = private unnamed_addr constant [7 x i8] c"online\00", align 1

; Function Attrs: nounwind uwtable
define dso_local ptr @replstateToString(i32 noundef %replstate) #0 {
entry:
  %retval = alloca ptr, align 8
  %replstate.addr = alloca i32, align 4
  store i32 %replstate, ptr %replstate.addr, align 4
  %0 = load i32, ptr %replstate.addr, align 4
  switch i32 %0, label %sw.default [
    i32 6, label %sw.bb
    i32 7, label %sw.bb
    i32 8, label %sw.bb1
    i32 9, label %sw.bb2
  ]

sw.bb:                                            ; preds = %entry, %entry
  store ptr @.str.331, ptr %retval, align 8
  br label %return

sw.bb1:                                           ; preds = %entry
  store ptr @.str.332, ptr %retval, align 8
  br label %return

sw.bb2:                                           ; preds = %entry
  store ptr @.str.333, ptr %retval, align 8
  br label %return

sw.default:                                       ; preds = %entry
  store ptr @.str.219, ptr %retval, align 8
  br label %return

return:                                           ; preds = %sw.default, %sw.bb2, %sw.bb1, %sw.bb
  %1 = load ptr, ptr %retval, align 8
  ret ptr %1
}