; Function Attrs: mustprogress nofree norecurse nosync nounwind willreturn memory(none) uwtable
define dso_local noundef nonnull ptr @replstateToString(i32 noundef %replstate) local_unnamed_addr #18 {
entry:
  %switch.tableidx = add i32 %replstate, -6
  %0 = icmp ult i32 %switch.tableidx, 4
  br i1 %0, label %switch.lookup, label %return

switch.lookup:                                    ; preds = %entry
  %1 = zext nneg i32 %switch.tableidx to i64
  %switch.gep = getelementptr inbounds [4 x ptr], ptr @switch.table.replstateToString, i64 0, i64 %1
  %switch.load = load ptr, ptr %switch.gep, align 8
  br label %return

return:                                           ; preds = %entry, %switch.lookup
  %retval.0 = phi ptr [ %switch.load, %switch.lookup ], [ @.str.219, %entry ]
  ret ptr %retval.0
}